target datalayout = "e-m:e-p270:32:32-p271:32:32-p272:64:64-i64:64-i128:128-f80:128-n8:16:32:64-S128"
target triple = "x86_64-unknown-linux-gnu"

%"class.google::protobuf::io::ZeroCopyInputStream" = type { ptr }
%"class.std::basic_string_view" = type { i64, ptr }
%"class.absl::lts_20230802::Cord::ChunkIterator" = type { %"class.std::basic_string_view", ptr, i64, %"class.absl::lts_20230802::cord_internal::CordRepBtreeReader" }
%"class.absl::lts_20230802::cord_internal::CordRepBtreeReader" = type { i64, %"class.absl::lts_20230802::cord_internal::CordRepBtreeNavigator" }
%"class.absl::lts_20230802::cord_internal::CordRepBtreeNavigator" = type { i32, [12 x i8], [12 x ptr] }
%"class.google::protobuf::io::CordInputStream" = type { %"class.google::protobuf::io::ZeroCopyInputStream", %"class.absl::lts_20230802::Cord::CharIterator", i64, i64, ptr, i64, i64 }
%"class.absl::lts_20230802::Cord::CharIterator" = type { %"class.absl::lts_20230802::Cord::ChunkIterator" }

; Function Attrs: mustprogress nounwind uwtable
define noundef i64 @_ZNK6google8protobuf2io15CordInputStream9ByteCountEv(ptr noundef nonnull align 8 dereferenceable(200) %this) unnamed_addr #4 align 2 {
entry:
  %this.addr = alloca ptr, align 8
  store ptr %this, ptr %this.addr, align 8
  %this1 = load ptr, ptr %this.addr, align 8
  %length_ = getelementptr inbounds %"class.google::protobuf::io::CordInputStream", ptr %this1, i32 0, i32 2
  %0 = load i64, ptr %length_, align 8
  %bytes_remaining_ = getelementptr inbounds %"class.google::protobuf::io::CordInputStream", ptr %this1, i32 0, i32 3
  %1 = load i64, ptr %bytes_remaining_, align 8
  %sub = sub i64 %0, %1
  ret i64 %sub
}