; Function Attrs: mustprogress nofree norecurse nosync nounwind willreturn memory(argmem: read) uwtable
define noundef i64 @_ZNK6google8protobuf2io15CordInputStream9ByteCountEv(ptr nocapture noundef nonnull readonly align 8 dereferenceable(200) %this) unnamed_addr #8 align 2 {
entry:
  %length_ = getelementptr inbounds i8, ptr %this, i64 160
  %0 = load i64, ptr %length_, align 8
  %bytes_remaining_ = getelementptr inbounds i8, ptr %this, i64 168
  %1 = load i64, ptr %bytes_remaining_, align 8
  %sub = sub i64 %0, %1
  ret i64 %sub
}